target datalayout = "e-m:e-p270:32:32-p271:32:32-p272:64:64-i64:64-i128:128-f80:128-n8:16:32:64-S128"
target triple = "x86_64-pc-linux-gnu"

%class.simplify_tactic = type { %class.tactic.base, i8, ptr, %class.params_ref }
%class.tactic.base = type <{ %"class.user_propagator::core", i32 }>
%"class.user_propagator::core" = type { ptr }
%class.params_ref = type { ptr }
%"struct.simplify_tactic::imp" = type <{ ptr, %class.th_rewriter, i32, [4 x i8] }>
%class.th_rewriter = type { ptr, %class.params_ref }

@.str.9 = private unnamed_addr constant [15 x i8] c"rewriter.steps\00", align 1

; Function Attrs: mustprogress uwtable
define linkonce_odr hidden void @_ZN15simplify_tactic3imp18collect_statisticsER10statistics(ptr noundef nonnull align 8 dereferenceable(28) %0, ptr noundef nonnull align 8 dereferenceable(16) %1) #4 comdat align 2 {
  %3 = alloca ptr, align 8
  %4 = alloca ptr, align 8
  store ptr %0, ptr %3, align 8, !tbaa !27
  store ptr %1, ptr %4, align 8, !tbaa !64
  %5 = load ptr, ptr %3, align 8
  %6 = load ptr, ptr %4, align 8, !tbaa !64
  %7 = getelementptr inbounds nuw %"struct.simplify_tactic::imp", ptr %5, i32 0, i32 2
  %8 = load i32, ptr %7, align 8, !tbaa !28
  call void @_ZN10statistics6updateEPKcj(ptr noundef nonnull align 8 dereferenceable(16) %6, ptr noundef @.str.9, i32 noundef %8)
  ret void
}

; Function Attrs: mustprogress uwtable
define hidden void @_ZNK15simplify_tactic18collect_statisticsER10statistics(ptr noundef nonnull align 8 dereferenceable(32) %0, ptr noundef nonnull align 8 dereferenceable(16) %1) unnamed_addr #4 align 2 {
  %3 = alloca ptr, align 8
  %4 = alloca ptr, align 8
  store ptr %0, ptr %3, align 8, !tbaa !3
  store ptr %1, ptr %4, align 8, !tbaa !64
  %5 = load ptr, ptr %3, align 8
  %6 = getelementptr inbounds nuw %class.simplify_tactic, ptr %5, i32 0, i32 2
  %7 = load ptr, ptr %6, align 8, !tbaa !23
  %8 = icmp ne ptr %7, null
  br i1 %8, label %9, label %13

9:                                                ; preds = %2
  %10 = getelementptr inbounds nuw %class.simplify_tactic, ptr %5, i32 0, i32 2
  %11 = load ptr, ptr %10, align 8, !tbaa !23
  %12 = load ptr, ptr %4, align 8, !tbaa !64
  call void @_ZN15simplify_tactic3imp18collect_statisticsER10statistics(ptr noundef nonnull align 8 dereferenceable(28) %11, ptr noundef nonnull align 8 dereferenceable(16) %12)
  br label %13

13:                                               ; preds = %9, %2
  ret void
}