; Function Attrs: mustprogress uwtable
define hidden void @_ZNK15simplify_tactic18collect_statisticsER10statistics(ptr noundef nonnull readonly align 8 captures(none) dereferenceable(32) %0, ptr noundef nonnull align 8 dereferenceable(16) %1) unnamed_addr #3 align 2 {
  %3 = getelementptr inbounds nuw i8, ptr %0, i64 16
  %4 = load ptr, ptr %3, align 8, !tbaa !24
  %.not = icmp eq ptr %4, null
  br i1 %.not, label %8, label %5

5:                                                ; preds = %2
  %6 = getelementptr inbounds nuw i8, ptr %4, i64 24
  %7 = load i32, ptr %6, align 8, !tbaa !20
  tail call void @_ZN10statistics6updateEPKcj(ptr noundef nonnull align 8 dereferenceable(16) %1, ptr noundef nonnull @.str.9, i32 noundef %7)
  br label %8

8:                                                ; preds = %5, %2
  ret void
}